target datalayout = "e-m:e-p270:32:32-p271:32:32-p272:64:64-i64:64-i128:128-f80:128-n8:16:32:64-S128"
target triple = "x86_64-pc-linux-gnu"

%struct.Kit_Sop_t_ = type { i32, i32, ptr }
%struct.Kit_Edge_t_ = type { i32 }
%struct.Vec_Int_t_ = type { i32, i32, ptr }
%struct.Kit_Graph_t_ = type { i32, i32, i32, i32, ptr, %struct.Kit_Edge_t_ }

; Function Attrs: inlinehint nounwind uwtable
define internal void @Kit_GraphComplement(ptr noundef %0) #2 {
  %2 = alloca ptr, align 8
  store ptr %0, ptr %2, align 8, !tbaa !12
  %3 = load ptr, ptr %2, align 8, !tbaa !12
  %4 = getelementptr inbounds nuw %struct.Kit_Graph_t_, ptr %3, i32 0, i32 5
  %5 = load i32, ptr %4, align 8
  %6 = and i32 %5, 1
  %7 = xor i32 %6, 1
  %8 = load i32, ptr %4, align 8
  %9 = and i32 %7, 1
  %10 = and i32 %8, -2
  %11 = or i32 %10, %9
  store i32 %11, ptr %4, align 8
  ret void
}

; Function Attrs: inlinehint nounwind uwtable
define internal void @Kit_GraphSetRoot(ptr noundef %0, i32 %1) #2 {
  %3 = alloca %struct.Kit_Edge_t_, align 4
  %4 = alloca ptr, align 8
  %5 = getelementptr inbounds nuw %struct.Kit_Edge_t_, ptr %3, i32 0, i32 0
  store i32 %1, ptr %5, align 4
  store ptr %0, ptr %4, align 8, !tbaa !12
  %6 = load ptr, ptr %4, align 8, !tbaa !12
  %7 = getelementptr inbounds nuw %struct.Kit_Graph_t_, ptr %6, i32 0, i32 5
  call void @llvm.memcpy.p0.p0.i64(ptr align 8 %7, ptr align 4 %3, i64 4, i1 false), !tbaa.struct !14
  ret void
}

; Function Attrs: inlinehint nounwind uwtable
define internal void @Vec_IntGrow(ptr noundef %0, i32 noundef %1) #2 {
  %3 = alloca ptr, align 8
  %4 = alloca i32, align 4
  store ptr %0, ptr %3, align 8, !tbaa !3
  store i32 %1, ptr %4, align 4, !tbaa !8
  %5 = load ptr, ptr %3, align 8, !tbaa !3
  %6 = getelementptr inbounds nuw %struct.Vec_Int_t_, ptr %5, i32 0, i32 0
  %7 = load i32, ptr %6, align 8, !tbaa !20
  %8 = load i32, ptr %4, align 4, !tbaa !8
  %9 = icmp sge i32 %7, %8
  br i1 %9, label %10, label %11

10:                                               ; preds = %2
  br label %36

11:                                               ; preds = %2
  %12 = load ptr, ptr %3, align 8, !tbaa !3
  %13 = getelementptr inbounds nuw %struct.Vec_Int_t_, ptr %12, i32 0, i32 2
  %14 = load ptr, ptr %13, align 8, !tbaa !19
  %15 = icmp ne ptr %14, null
  br i1 %15, label %16, label %24

16:                                               ; preds = %11
  %17 = load ptr, ptr %3, align 8, !tbaa !3
  %18 = getelementptr inbounds nuw %struct.Vec_Int_t_, ptr %17, i32 0, i32 2
  %19 = load ptr, ptr %18, align 8, !tbaa !19
  %20 = load i32, ptr %4, align 4, !tbaa !8
  %21 = sext i32 %20 to i64
  %22 = mul i64 4, %21
  %23 = call ptr @realloc(ptr noundef %19, i64 noundef %22) #9
  br label %29

24:                                               ; preds = %11
  %25 = load i32, ptr %4, align 4, !tbaa !8
  %26 = sext i32 %25 to i64
  %27 = mul i64 4, %26
  %28 = call noalias ptr @malloc(i64 noundef %27) #10
  br label %29

29:                                               ; preds = %24, %16
  %30 = phi ptr [ %23, %16 ], [ %28, %24 ]
  %31 = load ptr, ptr %3, align 8, !tbaa !3
  %32 = getelementptr inbounds nuw %struct.Vec_Int_t_, ptr %31, i32 0, i32 2
  store ptr %30, ptr %32, align 8, !tbaa !19
  %33 = load i32, ptr %4, align 4, !tbaa !8
  %34 = load ptr, ptr %3, align 8, !tbaa !3
  %35 = getelementptr inbounds nuw %struct.Vec_Int_t_, ptr %34, i32 0, i32 0
  store i32 %33, ptr %35, align 8, !tbaa !20
  br label %36

36:                                               ; preds = %29, %10
  ret void
}

; Function Attrs: inlinehint nounwind uwtable
define internal i32 @Vec_IntEntry(ptr noundef %0, i32 noundef %1) #2 {
  %3 = alloca ptr, align 8
  %4 = alloca i32, align 4
  store ptr %0, ptr %3, align 8, !tbaa !3
  store i32 %1, ptr %4, align 4, !tbaa !8
  %5 = load ptr, ptr %3, align 8, !tbaa !3
  %6 = getelementptr inbounds nuw %struct.Vec_Int_t_, ptr %5, i32 0, i32 2
  %7 = load ptr, ptr %6, align 8, !tbaa !19
  %8 = load i32, ptr %4, align 4, !tbaa !8
  %9 = sext i32 %8 to i64
  %10 = getelementptr inbounds i32, ptr %7, i64 %9
  %11 = load i32, ptr %10, align 4, !tbaa !8
  ret i32 %11
}

; Function Attrs: inlinehint nounwind uwtable
define internal i32 @Vec_IntSize(ptr noundef %0) #2 {
  %2 = alloca ptr, align 8
  store ptr %0, ptr %2, align 8, !tbaa !3
  %3 = load ptr, ptr %2, align 8, !tbaa !3
  %4 = getelementptr inbounds nuw %struct.Vec_Int_t_, ptr %3, i32 0, i32 1
  %5 = load i32, ptr %4, align 4, !tbaa !16
  ret i32 %5
}

; Function Attrs: nounwind uwtable
define ptr @Kit_SopFactor(ptr noundef %0, i32 noundef %1, i32 noundef %2, ptr noundef %3) #0 {
  %5 = alloca ptr, align 8
  %6 = alloca ptr, align 8
  %7 = alloca i32, align 4
  %8 = alloca i32, align 4
  %9 = alloca ptr, align 8
  %10 = alloca %struct.Kit_Sop_t_, align 8
  %11 = alloca ptr, align 8
  %12 = alloca ptr, align 8
  %13 = alloca %struct.Kit_Edge_t_, align 4
  %14 = alloca i32, align 4
  %15 = alloca %struct.Kit_Edge_t_, align 4
  store ptr %0, ptr %6, align 8, !tbaa !3
  store i32 %1, ptr %7, align 4, !tbaa !8
  store i32 %2, ptr %8, align 4, !tbaa !8
  store ptr %3, ptr %9, align 8, !tbaa !3
  call void @llvm.lifetime.start.p0(i64 16, ptr %10) #8
  call void @llvm.lifetime.start.p0(i64 8, ptr %11) #8
  store ptr %10, ptr %11, align 8, !tbaa !10
  call void @llvm.lifetime.start.p0(i64 8, ptr %12) #8
  call void @llvm.lifetime.start.p0(i64 4, ptr %13) #8
  %16 = load ptr, ptr %6, align 8, !tbaa !3
  %17 = call i32 @Vec_IntSize(ptr noundef %16)
  %18 = icmp eq i32 %17, 0
  br i1 %18, label %19, label %21

19:                                               ; preds = %4
  %20 = call ptr (...) @Kit_GraphCreateConst0()
  store ptr %20, ptr %5, align 8
  store i32 1, ptr %14, align 4
  br label %56

21:                                               ; preds = %4
  %22 = load ptr, ptr %6, align 8, !tbaa !3
  %23 = call i32 @Vec_IntSize(ptr noundef %22)
  %24 = icmp eq i32 %23, 1
  br i1 %24, label %25, label %31

25:                                               ; preds = %21
  %26 = load ptr, ptr %6, align 8, !tbaa !3
  %27 = call i32 @Vec_IntEntry(ptr noundef %26, i32 noundef 0)
  %28 = icmp eq i32 %27, 0
  br i1 %28, label %29, label %31

29:                                               ; preds = %25
  %30 = call ptr (...) @Kit_GraphCreateConst1()
  store ptr %30, ptr %5, align 8
  store i32 1, ptr %14, align 4
  br label %56

31:                                               ; preds = %25, %21
  %32 = load ptr, ptr %9, align 8, !tbaa !3
  call void @Vec_IntGrow(ptr noundef %32, i32 noundef 1048576)
  %33 = load ptr, ptr %11, align 8, !tbaa !10
  %34 = load ptr, ptr %6, align 8, !tbaa !3
  %35 = load i32, ptr %8, align 4, !tbaa !8
  %36 = mul nsw i32 2, %35
  %37 = load ptr, ptr %9, align 8, !tbaa !3
  call void @Kit_SopCreateInverse(ptr noundef %33, ptr noundef %34, i32 noundef %36, ptr noundef %37)
  %38 = load i32, ptr %8, align 4, !tbaa !8
  %39 = call ptr @Kit_GraphCreate(i32 noundef %38)
  store ptr %39, ptr %12, align 8, !tbaa !12
  call void @llvm.lifetime.start.p0(i64 4, ptr %15) #8
  %40 = load ptr, ptr %12, align 8, !tbaa !12
  %41 = load ptr, ptr %11, align 8, !tbaa !10
  %42 = load i32, ptr %8, align 4, !tbaa !8
  %43 = mul nsw i32 2, %42
  %44 = load ptr, ptr %9, align 8, !tbaa !3
  %45 = call i32 @Kit_SopFactor_rec(ptr noundef %40, ptr noundef %41, i32 noundef %43, ptr noundef %44)
  %46 = getelementptr inbounds nuw %struct.Kit_Edge_t_, ptr %15, i32 0, i32 0
  store i32 %45, ptr %46, align 4
  call void @llvm.memcpy.p0.p0.i64(ptr align 4 %13, ptr align 4 %15, i64 4, i1 false), !tbaa.struct !14
  call void @llvm.lifetime.end.p0(i64 4, ptr %15) #8
  %47 = load ptr, ptr %12, align 8, !tbaa !12
  %48 = getelementptr inbounds nuw %struct.Kit_Edge_t_, ptr %13, i32 0, i32 0
  %49 = load i32, ptr %48, align 4
  call void @Kit_GraphSetRoot(ptr noundef %47, i32 %49)
  %50 = load i32, ptr %7, align 4, !tbaa !8
  %51 = icmp ne i32 %50, 0
  br i1 %51, label %52, label %54

52:                                               ; preds = %31
  %53 = load ptr, ptr %12, align 8, !tbaa !12
  call void @Kit_GraphComplement(ptr noundef %53)
  br label %54

54:                                               ; preds = %52, %31
  %55 = load ptr, ptr %12, align 8, !tbaa !12
  store ptr %55, ptr %5, align 8
  store i32 1, ptr %14, align 4
  br label %56

56:                                               ; preds = %54, %29, %19
  call void @llvm.lifetime.end.p0(i64 4, ptr %13) #8
  call void @llvm.lifetime.end.p0(i64 8, ptr %12) #8
  call void @llvm.lifetime.end.p0(i64 8, ptr %11) #8
  call void @llvm.lifetime.end.p0(i64 16, ptr %10) #8
  %57 = load ptr, ptr %5, align 8
  ret ptr %57
}