; Function Attrs: nounwind uwtable
define ptr @Kit_SopFactor(ptr noundef %0, i32 noundef %1, i32 noundef %2, ptr noundef %3) local_unnamed_addr #0 {
  %5 = alloca %struct.Kit_Sop_t_, align 8
  call void @llvm.lifetime.start.p0(i64 16, ptr nonnull %5) #8
  %6 = getelementptr i8, ptr %0, i64 4
  %.val = load i32, ptr %6, align 4, !tbaa !3
  switch i32 %.val, label %14 [
    i32 0, label %7
    i32 1, label %9
  ]

7:                                                ; preds = %4
  %8 = tail call ptr (...) @Kit_GraphCreateConst0() #8
  br label %32

9:                                                ; preds = %4
  %10 = getelementptr i8, ptr %0, i64 8
  %.val19 = load ptr, ptr %10, align 8, !tbaa !10
  %.val19.val = load i32, ptr %.val19, align 4, !tbaa !11
  %11 = icmp eq i32 %.val19.val, 0
  br i1 %11, label %12, label %14

12:                                               ; preds = %9
  %13 = tail call ptr (...) @Kit_GraphCreateConst1() #8
  br label %32

14:                                               ; preds = %4, %9
  %15 = load i32, ptr %3, align 8, !tbaa !12
  %16 = icmp sgt i32 %15, 1048575
  br i1 %16, label %Vec_IntGrow.exit, label %17

17:                                               ; preds = %14
  %18 = getelementptr inbounds nuw i8, ptr %3, i64 8
  %19 = load ptr, ptr %18, align 8, !tbaa !10
  %.not.i = icmp eq ptr %19, null
  br i1 %.not.i, label %22, label %20

20:                                               ; preds = %17
  %21 = tail call dereferenceable_or_null(4194304) ptr @realloc(ptr noundef nonnull %19, i64 noundef 4194304) #9
  br label %24

22:                                               ; preds = %17
  %23 = tail call noalias dereferenceable_or_null(4194304) ptr @malloc(i64 noundef 4194304) #10
  br label %24

24:                                               ; preds = %22, %20
  %25 = phi ptr [ %21, %20 ], [ %23, %22 ]
  store ptr %25, ptr %18, align 8, !tbaa !10
  store i32 1048576, ptr %3, align 8, !tbaa !12
  br label %Vec_IntGrow.exit

Vec_IntGrow.exit:                                 ; preds = %14, %24
  %26 = shl nsw i32 %2, 1
  call void @Kit_SopCreateInverse(ptr noundef nonnull %5, ptr noundef nonnull %0, i32 noundef %26, ptr noundef nonnull %3) #8
  %27 = call ptr @Kit_GraphCreate(i32 noundef %2) #8
  %28 = call fastcc i32 @Kit_SopFactor_rec(ptr noundef %27, ptr noundef %5, i32 noundef %26, ptr noundef nonnull %3)
  %29 = getelementptr inbounds nuw i8, ptr %27, i64 24
  store i32 %28, ptr %29, align 8, !tbaa !13
  %.not = icmp eq i32 %1, 0
  br i1 %.not, label %32, label %30

30:                                               ; preds = %Vec_IntGrow.exit
  %31 = xor i32 %28, 1
  store i32 %31, ptr %29, align 8
  br label %32

32:                                               ; preds = %Vec_IntGrow.exit, %30, %12, %7
  %.0 = phi ptr [ %8, %7 ], [ %13, %12 ], [ %27, %30 ], [ %27, %Vec_IntGrow.exit ]
  call void @llvm.lifetime.end.p0(i64 16, ptr nonnull %5) #8
  ret ptr %.0
}